(dp0
S'10.2.201.18-10.2.201.18'
p1
I1
sS'10.2.1.249-10.2.1.10'
p2
I1
sS'10.2.0.187-10.2.0.187'
p3
I5
sS'192.168.1.45-192.168.1.1'
p4
I4
sS'10.2.2.8-10.2.2.230'
p5
I6
sS'10.2.203.254-10.2.201.197'
p6
I1
sS'10.2.6.254-10.2.6.19'
p7
I5
sS'10.2.203.254-10.2.201.112'
p8
I5
sS'10.2.203.254-10.2.201.110'
p9
I1
sS'10.2.7.13-10.2.7.205'
p10
I1
sS'10.2.203.254-10.2.201.134'
p11
I1
sS'10.2.203.22-10.2.203.254'
p12
I2
sS'10.2.202.167-10.2.203.254'
p13
I3
sS'10.2.1.249-10.2.1.16'
p14
I1
sS'10.2.200.64-10.2.203.254'
p15
I1
sS'10.2.0.254-10.2.0.205'
p16
I5
sS'10.2.203.254-10.2.202.205'
p17
I2
sS'10.2.1.254-10.2.1.230'
p18
I5
sS'10.2.201.197-10.2.203.254'
p19
I1
sS'10.2.0.249-10.2.0.250'
p20
I1
sS'10.2.0.254-10.2.0.10'
p21
I3
sS'10.2.7.16-10.2.7.249'
p22
I1
sS'10.2.203.254-10.2.200.49'
p23
I4
sS'10.2.203.254-10.2.201.54'
p24
I1
sS'10.2.1.2-10.2.1.254'
p25
I1
sS'10.2.201.13-10.2.203.254'
p26
I3
sS'10.2.2.18-10.2.2.230'
p27
I6
sS'10.2.203.254-10.2.200.227'
p28
I1
sS'10.2.7.24-10.2.7.249'
p29
I1
sS'10.2.1.2-10.2.1.230'
p30
I5
sS'10.2.3.254-10.2.3.205'
p31
I2
sS'10.2.203.254-10.2.201.217'
p32
I1
sS'10.2.0.5-10.2.5.8'
p33
I1
sS'10.2.203.254-10.2.201.185'
p34
I1
sS'10.2.4.254-10.2.4.14'
p35
I5
sS'10.2.4.201-10.2.4.151'
p36
I1
sS'10.2.7.17-10.2.7.249'
p37
I1
sS'10.2.2.249-10.2.2.12'
p38
I1
sS'10.2.202.126-10.2.203.254'
p39
I1
sS'10.2.7.16-10.2.7.254'
p40
I1
sS'10.2.5.254-10.2.5.3'
p41
I5
sS'10.2.2.254-10.2.2.205'
p42
I2
sS'10.2.2.8-10.2.2.249'
p43
I1
sS'10.2.1.254-10.2.1.205'
p44
I2
sS'10.2.203.254-10.2.201.142'
p45
I7
sS'10.2.0.249-10.2.0.64'
p46
I4
sS'10.2.0.249-10.2.0.65'
p47
I4
sS'10.2.2.254-10.2.2.230'
p48
I5
sS'10.2.0.249-10.2.0.67'
p49
I4
sS'10.2.2.254-10.2.2.6'
p50
I5
sS'10.2.2.254-10.2.2.5'
p51
I1
sS'10.2.203.254-10.2.202.135'
p52
I2
sS'10.2.201.68-10.2.203.254'
p53
I1
sS'10.2.1.19-10.2.1.254'
p54
I1
sS'10.2.203.254-10.2.201.68'
p55
I1
sS'10.2.201.162-10.2.203.254'
p56
I1
sS'10.2.203.84-10.2.203.84'
p57
I1
sS'10.2.7.14-10.2.7.249'
p58
I1
sS'10.2.5.254-10.2.5.9'
p59
I5
sS'10.2.5.254-10.2.5.8'
p60
I1
sS'10.2.201.76-10.2.203.254'
p61
I1
sS'10.2.4.254-10.2.4.3'
p62
I5
sS'10.2.203.254-10.2.201.28'
p63
I1
sS'10.2.2.18-10.2.2.205'
p64
I9
sS'10.2.5.8-10.2.5.254'
p65
I1
s.