(dp0
S'0.0.0.0-10.92.5.49'
p1
I5
sS'10.92.5.49-10.92.5.49'
p2
I2
sS'10.92.0.2-10.92.4.214'
p3
I1
sS'10.92.8.121-10.92.8.121'
p4
I3
sS'10.92.7.209-10.92.7.209'
p5
I1
sS'10.92.5.207-10.92.5.207'
p6
I1
sS'0.0.0.0-10.92.5.207'
p7
I3
sS'0.0.0.0-10.92.8.121'
p8
I5
sS'10.92.0.123-10.92.0.2'
p9
I1
sS'10.92.0.2-10.92.4.153'
p10
I1
sS'10.92.0.2-10.92.0.123'
p11
I1
sS'0.0.0.0-10.92.10.254'
p12
I1
s.