(dp0
S'192.168.0.1-192.168.0.2'
p1
I15
sS'169.254.134.196-169.254.134.196'
p2
I2
sS'192.168.0.5-192.168.0.1'
p3
I21
sS'186.138.189.10-192.168.0.2'
p4
I1
sS'192.168.0.1-192.168.0.6'
p5
I5
sS'186.138.189.10-186.138.189.1'
p6
I1
sS'10.9.132.251-10.9.128.1'
p7
I4
sS'192.168.0.4-192.168.0.1'
p8
I2
sS'192.168.0.7-192.168.0.4'
p9
I1
sS'192.168.0.6-192.168.0.1'
p10
I1
sS'0.0.0.0-169.254.134.196'
p11
I3
sS'192.168.0.2-192.168.0.1'
p12
I7
sS'192.168.0.1-192.168.0.9'
p13
I15
sS'192.168.0.1-192.168.0.8'
p14
I5
sS'186.138.189.10-192.168.0.6'
p15
I2
sS'186.138.189.10-192.168.0.7'
p16
I7
sS'192.168.0.1-192.168.0.5'
p17
I21
sS'192.168.0.1-192.168.0.4'
p18
I6
sS'192.168.0.1-192.168.0.7'
p19
I17
sS'186.138.189.10-192.168.0.3'
p20
I1
sS'192.168.0.8-192.168.0.1'
p21
I1
sS'192.168.0.1-192.168.0.3'
p22
I15
s.