(dp0
S'192.168.0.26-192.168.0.1'
p1
I5
sS'186.22.213.200-186.22.212.1'
p2
I6
sS'192.168.0.30-192.168.0.1'
p3
I29
sS'192.168.0.1-192.168.0.26'
p4
I11
sS'192.168.0.1-192.168.0.19'
p5
I9
sS'192.168.0.1-192.168.0.32'
p6
I6
sS'192.168.0.19-192.168.0.1'
p7
I3
sS'192.168.0.1-192.168.0.30'
p8
I29
s.