(dp0
S'10.254.77.126-10.254.77.1'
p1
I2
sS'10.254.77.126-10.254.77.126'
p2
I3
sS'10.254.77.122-10.254.77.1'
p3
I1
sS'10.254.77.66-10.254.77.66'
p4
I8
sS'10.254.77.57-10.254.77.1'
p5
I1
sS'10.254.77.121-169.254.255.255'
p6
I2
sS'10.254.77.73-10.254.77.1'
p7
I1
sS'169.254.161.51-169.254.161.51'
p8
I2
sS'10.254.77.86-10.254.77.1'
p9
I11
sS'10.254.77.110-10.254.77.1'
p10
I1
sS'10.254.77.1-10.254.77.138'
p11
I1
sS'0.0.0.0-169.254.15.112'
p12
I3
sS'10.254.77.36-10.254.77.36'
p13
I11
sS'10.254.77.80-10.254.77.1'
p14
I4
sS'10.254.77.116-10.254.77.1'
p15
I1
sS'10.254.77.107-10.254.77.107'
p16
I3
sS'10.254.77.107-10.254.77.1'
p17
I7
sS'10.254.77.19-10.254.77.1'
p18
I10
sS'10.254.77.140-10.254.77.1'
p19
I1
sS'10.254.77.103-10.254.77.1'
p20
I1
sS'10.254.77.1-10.254.77.99'
p21
I1
sS'10.254.77.1-10.254.77.98'
p22
I1
sS'10.254.77.1-10.254.77.115'
p23
I1
sS'10.254.77.1-10.254.77.114'
p24
I1
sS'10.254.77.1-10.254.77.117'
p25
I1
sS'10.254.77.1-10.254.77.116'
p26
I1
sS'10.254.77.1-10.254.77.111'
p27
I1
sS'10.254.77.1-10.254.77.110'
p28
I1
sS'10.254.77.1-10.254.77.113'
p29
I1
sS'10.254.77.1-10.254.77.19'
p30
I10
sS'10.254.77.66-169.254.255.255'
p31
I5
sS'10.254.77.134-10.254.77.1'
p32
I1
sS'10.254.77.125-10.254.77.1'
p33
I2
sS'10.254.77.97-10.254.77.1'
p34
I4
sS'10.254.77.105-10.254.77.1'
p35
I2
sS'10.254.77.125-10.254.77.125'
p36
I4
sS'10.254.77.1-10.254.77.61'
p37
I11
sS'10.254.77.126-169.254.255.255'
p38
I1
sS'10.254.77.1-10.254.77.108'
p39
I1
sS'10.254.77.1-10.254.77.106'
p40
I1
sS'10.254.77.1-10.254.77.107'
p41
I1
sS'10.254.77.117-10.254.77.1'
p42
I1
sS'10.254.77.1-10.254.77.105'
p43
I1
sS'10.254.77.1-10.254.77.102'
p44
I1
sS'10.254.77.1-10.254.77.103'
p45
I1
sS'10.254.77.1-10.254.77.100'
p46
I1
sS'10.254.77.1-10.254.77.101'
p47
I1
sS'10.254.77.107-192.168.170.1'
p48
I1
sS'10.254.77.123-169.254.255.255'
p49
I1
sS'0.0.0.0-169.254.214.113'
p50
I2
sS'10.254.77.98-10.254.77.1'
p51
I1
sS'10.254.77.123-10.254.77.1'
p52
I2
sS'10.254.77.102-10.254.77.1'
p53
I1
sS'10.254.77.36-169.254.255.255'
p54
I9
sS'10.254.77.66-10.254.77.1'
p55
I14
sS'10.254.77.113-10.254.77.113'
p56
I3
sS'10.254.77.1-10.254.77.133'
p57
I1
sS'0.0.0.0-10.254.77.97'
p58
I3
sS'10.254.77.1-10.254.77.131'
p59
I1
sS'10.254.77.1-10.254.77.130'
p60
I1
sS'10.254.77.1-10.254.77.135'
p61
I1
sS'10.254.77.1-10.254.77.134'
p62
I1
sS'10.254.77.101-10.254.77.1'
p63
I1
sS'10.254.77.80-10.254.77.80'
p64
I1
sS'10.254.77.115-10.254.77.1'
p65
I1
sS'10.254.77.1-10.254.77.119'
p66
I1
sS'10.254.77.137-10.254.77.1'
p67
I1
sS'10.254.77.75-10.254.77.1'
p68
I1
sS'10.254.77.105-10.254.77.105'
p69
I2
sS'0.0.0.0-169.254.161.51'
p70
I5
sS'0.0.0.0-10.254.77.126'
p71
I3
sS'10.254.77.123-10.254.77.123'
p72
I3
sS'0.0.0.0-10.254.77.123'
p73
I3
sS'100.74.8.164-10.254.77.1'
p74
I11
sS'10.254.77.1-10.254.77.124'
p75
I1
sS'0.0.0.0-10.254.77.80'
p76
I5
sS'10.254.77.1-10.254.77.126'
p77
I1
sS'10.254.77.1-10.254.77.120'
p78
I1
sS'10.254.77.1-10.254.77.121'
p79
I1
sS'10.254.77.1-10.254.77.122'
p80
I1
sS'10.254.77.12-10.254.77.1'
p81
I15
sS'10.254.77.1-10.254.77.128'
p82
I1
sS'10.254.77.113-10.254.77.1'
p83
I3
sS'10.254.77.133-10.254.77.1'
p84
I1
sS'10.254.77.105-169.254.255.255'
p85
I4
sS'10.254.77.124-10.254.77.1'
p86
I1
sS'10.254.77.120-10.254.77.1'
p87
I1
sS'0.0.0.0-10.254.77.121'
p88
I3
sS'10.254.77.106-10.254.77.106'
p89
I2
sS'10.254.77.138-10.254.77.1'
p90
I1
sS'10.254.77.121-10.254.77.1'
p91
I4
sS'0.0.0.0-10.254.77.122'
p92
I2
sS'10.254.77.128-10.254.77.1'
p93
I1
sS'10.254.77.97-10.254.77.97'
p94
I1
sS'10.254.77.100-10.254.77.1'
p95
I2
sS'10.254.77.113-169.254.255.255'
p96
I1
sS'10.254.77.142-10.254.77.142'
p97
I1
sS'10.254.77.61-10.254.77.1'
p98
I11
sS'10.254.77.121-10.254.77.121'
p99
I5
sS'10.254.77.1-10.254.77.123'
p100
I1
sS'0.0.0.0-10.254.77.107'
p101
I11
sS'0.0.0.0-10.254.77.106'
p102
I2
sS'0.0.0.0-10.254.77.105'
p103
I2
sS'255.255.255.255-255.255.255.255'
p104
I7
sS'10.254.77.131-10.254.77.1'
p105
I1
sS'0.0.0.0-10.254.77.113'
p106
I3
sS'0.0.0.0-10.254.77.119'
p107
I1
sS'10.254.77.108-10.254.77.1'
p108
I1
sS'10.254.77.12-169.254.255.255'
p109
I4
sS'10.254.77.139-10.254.77.1'
p110
I1
sS'10.254.77.99-10.254.77.1'
p111
I1
sS'10.254.77.1-10.254.77.142'
p112
I1
sS'10.254.77.1-10.254.77.140'
p113
I1
sS'10.254.77.1-10.254.77.141'
p114
I1
sS'10.254.77.60-10.254.77.1'
p115
I1
sS'10.254.77.12-10.254.77.12'
p116
I7
sS'10.254.77.118-10.254.77.1'
p117
I316
sS'10.254.77.36-10.254.77.1'
p118
I18
s.