(dp0
S'10.2.2.12-10.2.2.230'
p1
I51
sS'10.2.7.13-10.2.7.249'
p2
I1
sS'10.2.203.254-10.2.201.122'
p3
I6
sS'10.2.201.54-10.2.203.254'
p4
I27
sS'0.0.0.0-169.254.110.232'
p5
I3
sS'10.2.1.9-10.2.1.205'
p6
I1
sS'10.2.203.110-10.2.201.115'
p7
I2
sS'10.2.201.86-169.254.255.255'
p8
I5
sS'10.2.203.11-10.2.203.11'
p9
I9
sS'10.2.3.249-10.2.3.8'
p10
I2
sS'10.2.203.254-10.2.200.252'
p11
I11
sS'10.2.201.156-10.0.0.253'
p12
I29
sS'10.2.203.254-10.2.201.73'
p13
I1
sS'10.2.203.254-10.2.201.72'
p14
I5
sS'10.2.7.254-10.2.7.15'
p15
I1
sS'10.2.203.254-10.2.201.77'
p16
I1
sS'10.2.203.254-10.2.201.76'
p17
I122
sS'10.2.1.254-10.2.1.230'
p18
I192
sS'0.0.0.0-10.2.200.75'
p19
I1
sS'10.2.203.110-10.2.200.121'
p20
I2
sS'10.2.6.22-10.2.6.250'
p21
I1
sS'10.2.200.234-10.2.203.254'
p22
I4
sS'10.2.201.36-10.2.203.254'
p23
I5
sS'10.2.6.2-10.2.6.250'
p24
I3
sS'10.2.203.142-10.0.0.253'
p25
I76
sS'10.2.201.101-10.2.202.174'
p26
I1
sS'10.2.203.254-10.2.200.69'
p27
I3
sS'10.2.201.58-10.2.201.58'
p28
I3
sS'10.2.7.24-10.2.7.205'
p29
I34
sS'10.2.1.5-10.2.1.205'
p30
I34
sS'0.0.0.0-10.2.202.174'
p31
I3
sS'10.2.0.5-10.2.7.21'
p32
I1
sS'10.2.202.247-10.2.203.254'
p33
I1
sS'10.2.7.11-10.2.7.205'
p34
I1
sS'10.2.203.254-10.2.203.140'
p35
I14
sS'10.2.202.171-10.2.203.254'
p36
I3
sS'10.2.1.15-10.2.1.205'
p37
I18
sS'10.2.201.166-10.2.203.254'
p38
I2
sS'10.2.201.181-10.2.203.54'
p39
I5
sS'100.68.74.63-10.2.203.254'
p40
I3
sS'0.0.0.0-10.2.1.18'
p41
I3
sS'10.2.200.211-10.2.203.254'
p42
I14
sS'0.0.0.0-10.2.203.154'
p43
I3
sS'10.2.201.95-10.2.202.14'
p44
I3
sS'10.2.201.181-10.2.202.25'
p45
I2
sS'10.2.200.121-10.2.202.141'
p46
I1
sS'10.2.201.101-10.2.201.58'
p47
I1
sS'10.2.5.254-10.2.5.205'
p48
I194
sS'10.2.2.6-10.2.2.249'
p49
I2
sS'10.2.6.7-10.2.6.254'
p50
I9
sS'10.2.203.254-10.2.203.98'
p51
I5
sS'10.2.1.4-10.2.1.230'
p52
I50
sS'10.2.202.141-10.2.203.254'
p53
I86
sS'10.2.201.164-169.254.255.255'
p54
I5
sS'10.2.203.254-10.2.200.61'
p55
I5
sS'10.2.200.234-10.2.200.139'
p56
I1
sS'10.2.1.10-10.2.1.205'
p57
I24
sS'10.2.7.7-10.2.7.205'
p58
I33
sS'10.2.2.10-10.2.2.230'
p59
I60
sS'10.2.200.75-10.2.200.75'
p60
I1
sS'10.2.1.8-10.2.1.250'
p61
I2
sS'10.2.201.60-10.2.202.172'
p62
I2
sS'10.2.7.5-10.2.7.250'
p63
I2
sS'10.2.201.112-10.2.203.254'
p64
I2
sS'10.2.203.191-10.2.201.95'
p65
I3
sS'10.2.2.12-10.2.2.249'
p66
I4
sS'10.2.200.121-10.2.201.181'
p67
I2
sS'10.2.2.3-10.2.2.249'
p68
I7
sS'10.2.1.249-10.2.1.11'
p69
I3
sS'10.2.201.138-10.2.201.138'
p70
I3
sS'10.2.203.254-10.2.200.179'
p71
I1
sS'0.0.0.0-169.254.202.232'
p72
I3
sS'10.2.202.172-10.2.200.139'
p73
I10
sS'10.2.6.4-10.2.6.254'
p74
I10
sS'10.2.7.21-10.2.7.205'
p75
I32
sS'0.0.0.0-192.168.1.20'
p76
I1
sS'10.2.100.29-10.2.100.254'
p77
I9
sS'10.2.203.81-10.2.203.254'
p78
I14
sS'10.2.201.95-10.2.200.121'
p79
I10
sS'10.2.2.254-10.2.2.230'
p80
I191
sS'10.2.200.139-10.2.200.105'
p81
I3
sS'10.2.203.160-10.2.203.254'
p82
I12
sS'10.2.2.4-10.2.2.254'
p83
I3
sS'10.2.4.13-10.2.4.15'
p84
I1
sS'10.2.4.13-10.2.4.14'
p85
I1
sS'169.254.72.32-169.254.72.32'
p86
I1
sS'10.2.2.4-10.2.2.250'
p87
I1
sS'10.2.2.13-10.2.2.249'
p88
I6
sS'10.2.4.13-10.2.4.10'
p89
I1
sS'10.2.203.124-10.2.203.254'
p90
I1
sS'10.2.2.5-10.2.2.249'
p91
I3
sS'10.2.200.60-10.2.203.254'
p92
I5
sS'10.2.201.60-10.2.201.95'
p93
I2
sS'10.2.2.3-10.2.2.205'
p94
I62
sS'10.2.200.154-10.2.203.254'
p95
I37
sS'0.0.0.0-169.254.28.116'
p96
I2
sS'10.2.7.16-10.2.7.205'
p97
I28
sS'10.2.202.141-10.2.200.121'
p98
I4
sS'10.2.200.139-10.2.201.95'
p99
I5
sS'10.2.7.3-10.2.7.249'
p100
I8
sS'0.0.0.0-169.254.10.48'
p101
I2
sS'10.2.202.141-10.2.202.6'
p102
I3
sS'10.2.1.2-10.2.1.249'
p103
I2
sS'10.2.200.139-10.2.202.135'
p104
I4
sS'10.2.200.152-169.254.255.255'
p105
I10
sS'10.2.2.1-10.2.2.249'
p106
I5
sS'10.2.1.250-10.2.1.2'
p107
I1
sS'10.2.5.254-10.2.5.20'
p108
I1
sS'10.65.251.107-10.2.203.254'
p109
I1
sS'10.2.202.25-10.2.202.141'
p110
I2
sS'10.2.200.231-10.2.203.254'
p111
I2
sS'10.2.2.254-10.2.2.20'
p112
I4
sS'10.2.2.254-10.2.2.21'
p113
I3
sS'10.2.202.222-10.2.203.254'
p114
I7
sS'10.2.202.222-10.2.202.222'
p115
I5
sS'10.2.201.60-10.2.201.181'
p116
I3
sS'10.2.5.254-10.2.5.10'
p117
I1
sS'10.2.0.183-10.2.0.254'
p118
I1
sS'10.2.201.95-10.2.203.110'
p119
I1
sS'10.2.201.214-10.2.203.254'
p120
I6
sS'10.2.4.13-10.2.4.18'
p121
I1
sS'0.0.0.0-10.2.201.103'
p122
I3
sS'10.2.201.95-10.2.200.65'
p123
I2
sS'10.2.2.14-10.2.2.249'
p124
I6
sS'10.2.200.77-10.2.203.254'
p125
I1
sS'10.2.200.136-10.2.200.136'
p126
I6
sS'10.2.201.129-10.2.203.254'
p127
I4
sS'10.2.201.127-169.254.255.255'
p128
I5
sS'10.2.7.4-10.2.7.254'
p129
I16
sS'10.2.201.84-10.2.203.254'
p130
I14
sS'10.2.203.254-10.2.202.91'
p131
I2
sS'10.2.200.97-10.2.200.97'
p132
I5
sS'10.2.201.95-10.2.202.172'
p133
I2
sS'10.2.203.254-10.2.202.148'
p134
I5
sS'10.2.201.95-10.2.202.174'
p135
I2
sS'10.2.203.128-10.2.200.209'
p136
I1
sS'10.2.203.254-10.2.203.160'
p137
I1
sS'10.2.6.22-10.2.6.254'
p138
I5
sS'10.2.203.254-10.2.200.92'
p139
I8
sS'10.2.203.254-10.2.200.94'
p140
I1
sS'10.2.203.254-10.2.203.165'
p141
I3
sS'10.2.7.20-10.2.7.250'
p142
I2
sS'10.2.7.254-10.2.7.18'
p143
I2
sS'10.2.203.254-10.2.200.98'
p144
I1
sS'10.2.203.254-10.2.200.99'
p145
I15
sS'10.2.203.254-10.2.202.244'
p146
I1
sS'10.2.203.254-10.2.200.105'
p147
I1
sS'10.2.201.31-10.2.201.95'
p148
I2
sS'10.2.200.139-10.2.201.166'
p149
I2
sS'10.2.0.5-10.2.2.13'
p150
I1
sS'10.2.7.250-10.2.7.14'
p151
I2
sS'10.2.201.75-10.2.203.254'
p152
I3
sS'10.2.201.109-10.2.203.254'
p153
I6
sS'0.0.0.0-10.2.201.198'
p154
I11
sS'10.2.7.250-10.2.7.13'
p155
I1
sS'10.2.203.254-10.2.201.208'
p156
I1
sS'10.2.2.2-10.2.2.250'
p157
I1
sS'10.2.7.250-10.2.7.19'
p158
I1
sS'10.2.201.128-10.2.203.254'
p159
I17
sS'10.2.1.5-10.2.1.249'
p160
I4
sS'10.2.203.96-10.2.203.96'
p161
I1
sS'10.2.200.139-10.2.201.172'
p162
I11
sS'10.2.202.141-10.2.202.172'
p163
I5
sS'0.0.0.0-10.2.203.1'
p164
I1
sS'0.0.0.0-10.2.202.134'
p165
I8
sS'10.2.6.9-10.2.6.205'
p166
I1
sS'10.2.7.250-10.2.7.2'
p167
I1
sS'10.2.4.102-10.2.4.249'
p168
I3
sS'10.2.7.23-10.2.7.205'
p169
I17
sS'10.2.2.15-10.2.2.230'
p170
I54
sS'10.2.203.110-10.2.202.25'
p171
I3
sS'10.2.6.9-10.2.6.249'
p172
I6
sS'10.2.6.5-10.2.6.249'
p173
I6
sS'10.2.202.25-10.2.202.135'
p174
I3
sS'10.2.203.86-10.2.203.254'
p175
I14
sS'10.2.1.14-10.2.1.230'
p176
I55
sS'10.2.203.52-10.2.203.128'
p177
I4
sS'10.2.203.254-10.2.201.36'
p178
I4
sS'10.2.6.250-10.2.6.7'
p179
I1
sS'10.2.6.250-10.2.6.6'
p180
I2
sS'10.2.203.108-10.2.203.254'
p181
I12
sS'10.2.200.220-10.2.203.110'
p182
I1
sS'10.2.203.254-10.2.200.202'
p183
I1
sS'10.2.201.149-10.2.200.97'
p184
I3
sS'10.2.202.176-10.2.203.254'
p185
I4
sS'10.2.203.112-10.2.203.254'
p186
I1
sS'10.2.200.171-169.254.255.255'
p187
I5
sS'10.2.203.254-10.2.200.205'
p188
I2
sS'10.2.4.254-10.2.4.17'
p189
I2
sS'10.2.4.254-10.2.4.13'
p190
I1
sS'10.2.7.6-10.2.7.250'
p191
I1
sS'10.2.7.6-10.2.7.254'
p192
I14
sS'10.2.1.15-10.2.1.249'
p193
I3
sS'10.2.201.68-10.2.203.254'
p194
I1
sS'10.2.201.181-10.2.203.10'
p195
I2
sS'0.0.0.0-10.2.200.231'
p196
I1
sS'10.2.7.249-10.2.7.25'
p197
I3
sS'10.2.202.172-10.2.203.10'
p198
I2
sS'10.2.1.254-10.2.1.201'
p199
I107
sS'10.2.203.254-10.2.203.125'
p200
I1
sS'10.2.202.36-169.254.255.255'
p201
I1
sS'10.2.1.254-10.2.1.205'
p202
I161
sS'10.2.202.74-10.2.203.254'
p203
I12
sS'10.2.201.138-10.2.203.254'
p204
I1
sS'10.2.203.110-10.2.201.172'
p205
I8
sS'10.2.1.13-10.2.1.249'
p206
I1
sS'10.2.201.31-10.2.200.139'
p207
I2
sS'10.2.7.249-10.2.7.1'
p208
I2
sS'0.0.0.0-10.2.203.183'
p209
I15
sS'10.2.6.12-10.2.6.205'
p210
I1
sS'10.2.203.191-10.2.203.110'
p211
I2
sS'10.2.7.249-10.2.7.4'
p212
I1
sS'10.2.7.249-10.2.7.9'
p213
I3
sS'10.2.7.249-10.2.7.8'
p214
I3
sS'10.2.201.244-10.2.201.244'
p215
I5
sS'10.2.2.12-10.2.2.205'
p216
I31
sS'10.2.200.209-10.2.203.128'
p217
I1
sS'10.2.201.101-10.2.201.86'
p218
I2
sS'10.2.201.160-10.2.203.254'
p219
I2
sS'10.2.1.2-10.2.1.250'
p220
I2
sS'10.2.1.15-10.2.1.230'
p221
I52
sS'0.0.0.0-169.254.33.42'
p222
I14
sS'0.0.0.0-169.254.155.248'
p223
I2
sS'10.2.2.6-10.2.2.230'
p224
I52
sS'10.2.200.248-10.2.200.248'
p225
I7
sS'10.2.2.5-10.2.2.4'
p226
I1
sS'10.2.201.219-10.2.201.219'
p227
I3
sS'10.2.2.7-10.2.2.230'
p228
I50
sS'10.2.202.163-10.2.202.163'
p229
I1
sS'10.2.203.254-10.2.201.119'
p230
I8
sS'10.2.1.16-10.2.1.230'
p231
I50
sS'10.2.2.13-10.2.2.205'
p232
I22
sS'10.2.203.128-10.2.200.231'
p233
I1
sS'10.2.7.7-10.2.7.250'
p234
I1
sS'10.2.200.65-10.2.200.139'
p235
I2
sS'10.2.1.19-10.2.1.249'
p236
I2
sS'10.2.201.103-10.2.203.254'
p237
I2
sS'10.2.7.7-10.2.7.254'
p238
I2
sS'10.2.202.147-10.2.203.254'
p239
I3
sS'10.2.203.21-10.2.203.254'
p240
I47
sS'10.2.2.5-10.2.2.250'
p241
I2
sS'10.2.200.141-10.2.203.254'
p242
I4
sS'0.0.0.0-10.2.203.96'
p243
I3
sS'10.2.200.189-10.2.203.254'
p244
I1
sS'10.2.200.220-10.2.200.139'
p245
I1
sS'10.2.2.5-10.2.2.205'
p246
I18
sS'10.2.203.254-10.2.201.86'
p247
I1
sS'0.0.0.0-169.254.181.210'
p248
I1
sS'0.0.0.0-10.2.203.72'
p249
I3
sS'10.2.7.21-10.2.7.254'
p250
I18
sS'10.2.6.254-10.2.6.24'
p251
I4
sS'10.2.203.254-10.2.203.128'
p252
I1
sS'10.2.6.254-10.2.6.23'
p253
I5
sS'10.2.200.28-10.2.203.254'
p254
I2
sS'10.2.203.254-10.2.203.124'
p255
I8
sS'0.0.0.0-10.2.1.19'
p256
I3
sS'10.2.201.142-10.2.203.254'
p257
I5
sS'10.2.202.172-10.2.202.222'
p258
I4
sS'10.2.203.46-10.2.203.254'
p259
I34
sS'0.0.0.0-10.2.7.4'
p260
I3
sS'10.127.247.145-10.2.203.254'
p261
I1
sS'10.2.202.222-169.254.255.255'
p262
I18
sS'10.2.4.249-10.2.4.19'
p263
I3
sS'10.2.6.6-10.2.6.249'
p264
I6
sS'0.0.0.0-10.2.1.5'
p265
I3
sS'10.2.200.75-10.0.0.253'
p266
I1
sS'10.2.200.97-169.254.255.255'
p267
I16
sS'10.2.4.249-10.2.4.16'
p268
I2
sS'0.0.0.0-10.2.1.1'
p269
I3
sS'10.2.4.249-10.2.4.10'
p270
I3
sS'10.2.4.249-10.2.4.13'
p271
I4
sS'10.2.4.249-10.2.4.12'
p272
I3
sS'10.2.201.95-10.2.201.60'
p273
I1
sS'10.2.3.249-10.2.3.2'
p274
I5
sS'10.2.7.16-10.2.7.254'
p275
I2
sS'10.2.3.250-10.2.3.10'
p276
I2
sS'10.2.3.249-10.2.3.5'
p277
I6
sS'10.2.2.15-10.2.2.250'
p278
I1
sS'10.2.200.109-169.254.255.255'
p279
I5
sS'10.2.203.150-169.254.255.255'
p280
I2
sS'10.2.4.250-10.2.4.22'
p281
I1
sS'10.2.2.254-10.2.2.9'
p282
I1
sS'10.2.4.254-10.2.4.2'
p283
I1
sS'10.2.202.25-10.2.201.95'
p284
I1
sS'10.2.202.172-10.2.202.141'
p285
I2
sS'10.2.1.17-10.2.1.250'
p286
I3
sS'10.2.203.254-10.2.202.5'
p287
I1
sS'10.2.203.254-10.2.202.7'
p288
I1
sS'10.2.202.163-169.254.255.255'
p289
I2
sS'10.2.201.199-10.2.203.254'
p290
I3
sS'10.2.6.5-10.2.6.205'
p291
I1
sS'10.2.1.9-10.2.1.249'
p292
I7
sS'10.2.202.25-10.2.202.172'
p293
I10
sS'10.2.4.254-10.2.4.6'
p294
I1
sS'10.2.203.150-10.2.203.150'
p295
I1
sS'0.0.0.0-169.254.131.8'
p296
I3
sS'10.2.203.254-10.2.201.249'
p297
I21
sS'10.2.202.141-10.2.202.135'
p298
I5
sS'10.2.203.43-10.2.203.254'
p299
I10
sS'10.2.201.181-10.2.200.65'
p300
I3
sS'10.2.203.254-10.2.202.36'
p301
I1
sS'10.2.7.23-10.2.7.250'
p302
I1
sS'10.2.201.86-10.2.203.254'
p303
I2
sS'10.2.6.19-10.2.6.205'
p304
I1
sS'10.2.2.14-10.2.2.205'
p305
I35
sS'10.2.201.187-10.2.201.187'
p306
I2
sS'10.2.0.191-10.2.0.254'
p307
I1
sS'10.2.203.254-10.2.202.45'
p308
I28
sS'0.0.0.0-10.2.202.171'
p309
I6
sS'10.2.1.18-10.2.1.250'
p310
I1
sS'10.2.202.25-10.2.203.254'
p311
I22
sS'10.2.203.254-10.2.200.49'
p312
I3
sS'169.254.131.8-169.254.131.8'
p313
I1
sS'10.2.202.134-10.2.203.254'
p314
I5
sS'10.2.201.181-10.2.200.220'
p315
I3
sS'10.2.201.181-10.2.200.105'
p316
I2
sS'10.2.203.84-10.2.203.254'
p317
I3
sS'10.2.201.181-10.2.202.6'
p318
I1
sS'10.2.200.2-10.2.203.254'
p319
I7
sS'10.2.203.254-10.2.203.157'
p320
I1
sS'10.2.203.110-10.2.202.135'
p321
I4
sS'10.2.1.2-10.2.1.205'
p322
I20
sS'10.2.200.231-10.2.203.128'
p323
I1
sS'10.2.202.222-10.2.203.128'
p324
I1
sS'10.2.202.25-10.2.201.181'
p325
I2
sS'10.2.202.65-10.2.202.65'
p326
I5
sS'10.2.200.220-10.2.202.25'
p327
I26
sS'10.2.2.8-10.2.2.254'
p328
I1
sS'10.2.200.86-10.2.203.254'
p329
I5
sS'10.2.203.254-10.2.200.2'
p330
I1
sS'10.2.200.213-10.2.200.213'
p331
I4
sS'10.2.201.18-10.2.203.254'
p332
I1
sS'10.2.202.14-10.2.203.128'
p333
I1
sS'10.2.202.126-10.2.203.254'
p334
I38
sS'10.2.202.172-10.2.202.25'
p335
I10
sS'10.2.3.250-10.2.3.3'
p336
I4
sS'10.2.6.12-10.2.6.249'
p337
I6
sS'10.2.200.202-10.2.203.254'
p338
I5
sS'10.2.201.101-10.2.201.164'
p339
I2
sS'10.2.203.183-10.2.203.183'
p340
I6
sS'10.2.203.254-10.2.202.155'
p341
I5
sS'10.2.6.22-10.2.6.249'
p342
I5
sS'10.2.203.110-10.2.200.118'
p343
I2
sS'10.2.203.254-10.2.202.159'
p344
I1
sS'10.2.202.41-10.2.203.254'
p345
I1
sS'10.2.1.13-10.2.1.205'
p346
I23
sS'10.2.203.150-10.2.203.254'
p347
I1
sS'10.2.201.161-10.2.201.161'
p348
I1
sS'10.2.203.110-10.2.203.10'
p349
I1
sS'10.2.203.142-10.0.0.241'
p350
I73
sS'10.2.201.95-10.2.201.164'
p351
I5
sS'10.2.2.14-10.2.2.254'
p352
I1
sS'10.2.203.254-10.2.202.253'
p353
I5
sS'10.2.4.249-10.2.4.20'
p354
I3
sS'10.2.200.220-10.2.201.181'
p355
I12
sS'10.2.7.250-10.2.7.20'
p356
I1
sS'10.2.7.250-10.2.7.21'
p357
I1
sS'10.2.7.250-10.2.7.22'
p358
I1
sS'10.2.0.68-10.2.0.254'
p359
I2
sS'10.2.6.11-10.2.6.254'
p360
I8
sS'10.2.201.86-10.2.201.95'
p361
I2
sS'10.2.202.224-10.2.203.254'
p362
I2
sS'10.2.203.110-10.2.203.191'
p363
I9
sS'10.2.200.69-10.2.203.254'
p364
I7
sS'10.2.203.254-10.2.200.22'
p365
I2
sS'10.2.7.6-10.2.7.205'
p366
I34
sS'10.2.202.134-10.2.202.134'
p367
I1
sS'10.2.6.21-10.2.6.20'
p368
I2
sS'10.2.201.95-10.2.202.25'
p369
I1
sS'10.2.202.24-10.2.203.254'
p370
I2
sS'10.2.201.90-169.254.255.255'
p371
I4
sS'10.2.7.21-10.2.7.250'
p372
I3
sS'10.2.201.181-10.2.203.110'
p373
I1
sS'10.2.200.65-10.2.201.181'
p374
I3
sS'10.2.201.181-10.2.200.139'
p375
I5
sS'10.2.201.198-10.2.203.254'
p376
I7
sS'10.2.6.12-10.2.6.254'
p377
I8
sS'10.2.203.254-10.2.200.78'
p378
I11
sS'10.2.2.10-10.2.2.205'
p379
I51
sS'0.0.0.0-169.254.57.189'
p380
I1
sS'10.2.2.12-10.2.2.254'
p381
I2
sS'10.2.1.19-10.2.1.205'
p382
I24
sS'10.2.2.250-10.2.2.19'
p383
I1
sS'10.2.2.12-10.2.2.250'
p384
I1
sS'10.2.2.250-10.2.2.17'
p385
I1
sS'10.2.1.8-10.2.1.249'
p386
I6
sS'10.2.6.20-10.2.6.254'
p387
I5
sS'10.2.2.250-10.2.2.13'
p388
I1
sS'10.2.2.16-10.2.2.230'
p389
I53
sS'10.2.6.20-10.2.6.250'
p390
I1
sS'0.0.0.0-10.2.2.13'
p391
I3
sS'10.2.203.254-10.2.200.181'
p392
I10
sS'10.2.203.135-10.2.203.254'
p393
I1
sS'10.2.203.254-10.2.200.189'
p394
I1
sS'10.2.6.21-10.2.6.254'
p395
I7
sS'10.2.2.7-10.2.2.205'
p396
I41
sS'10.2.7.250-10.2.7.9'
p397
I1
sS'10.2.1.16-10.2.1.205'
p398
I25
sS'10.2.203.86-10.2.203.86'
p399
I1
sS'10.2.2.254-10.2.2.205'
p400
I145
sS'10.2.0.5-10.2.1.19'
p401
I1
sS'10.2.0.5-10.2.2.3'
p402
I1
sS'10.2.203.254-10.2.201.142'
p403
I2
sS'10.2.6.4-10.2.6.249'
p404
I9
sS'10.2.7.250-10.2.7.5'
p405
I1
sS'10.2.7.250-10.2.7.4'
p406
I2
sS'10.2.0.5-10.2.2.5'
p407
I1
sS'10.2.0.5-10.2.2.4'
p408
I1
sS'10.2.202.179-10.2.203.254'
p409
I1
sS'10.2.200.61-10.2.203.254'
p410
I18
sS'10.2.202.247-10.2.202.247'
p411
I3
sS'10.2.7.5-10.2.7.11'
p412
I1
sS'10.2.203.110-10.2.201.95'
p413
I2
sS'10.2.200.139-10.2.201.31'
p414
I5
sS'0.0.0.0-10.2.201.60'
p415
I4
sS'10.2.202.141-10.2.200.139'
p416
I13
sS'0.0.0.0-169.254.72.32'
p417
I3
sS'10.2.2.11-10.2.2.250'
p418
I2
sS'10.2.203.142-10.2.203.254'
p419
I5
sS'10.2.200.223-10.2.203.254'
p420
I1
sS'10.2.200.110-10.2.203.254'
p421
I3
sS'10.2.200.139-10.2.200.118'
p422
I1
sS'10.2.2.5-10.2.2.254'
p423
I19
sS'10.2.201.127-10.2.201.127'
p424
I3
sS'10.2.201.95-10.2.200.118'
p425
I1
sS'10.2.202.82-10.2.203.254'
p426
I1
sS'10.2.202.81-10.2.202.81'
p427
I1
sS'0.0.0.0-10.2.202.81'
p428
I2
sS'10.2.1.18-10.2.1.230'
p429
I25
sS'169.254.33.42-169.254.33.42'
p430
I4
sS'10.2.2.4-10.2.2.249'
p431
I1
sS'10.2.201.60-10.2.201.60'
p432
I2
sS'10.2.202.6-173.252.110.2'
p433
I2
sS'10.2.203.254-10.2.202.184'
p434
I1
sS'10.2.203.191-10.2.200.139'
p435
I3
sS'10.2.1.3-10.2.1.230'
p436
I50
sS'10.2.202.25-10.2.200.105'
p437
I3
sS'10.2.1.250-10.2.1.1'
p438
I1
sS'10.2.4.249-10.2.4.15'
p439
I3
sS'10.2.6.3-10.2.6.249'
p440
I3
sS'10.2.203.110-10.2.202.6'
p441
I1
sS'10.2.203.96-10.2.203.254'
p442
I32
sS'10.2.4.249-10.2.4.21'
p443
I3
sS'10.2.4.249-10.2.4.22'
p444
I2
sS'10.2.4.249-10.2.4.14'
p445
I4
sS'0.0.0.0-10.2.202.18'
p446
I8
sS'10.2.201.181-10.2.201.95'
p447
I1
sS'10.2.202.25-10.2.201.31'
p448
I4
sS'10.2.2.14-10.2.2.250'
p449
I2
sS'10.2.202.141-10.2.201.60'
p450
I6
sS'10.2.1.7-10.2.1.249'
p451
I4
sS'10.2.6.250-10.2.6.21'
p452
I1
sS'10.2.6.20-10.2.6.21'
p453
I2
sS'10.2.201.21-10.2.201.21'
p454
I3
sS'10.2.4.249-10.2.4.11'
p455
I3
sS'10.2.203.128-10.2.203.128'
p456
I2
sS'10.2.6.21-10.2.6.249'
p457
I10
sS'10.2.7.4-10.2.7.249'
p458
I5
sS'10.2.201.76-10.2.203.254'
p459
I1
sS'10.2.202.19-10.2.203.254'
p460
I3
sS'10.121.254.161-10.2.203.254'
p461
I1
sS'10.2.203.254-10.2.202.116'
p462
I7
sS'10.2.203.254-10.2.203.111'
p463
I7
sS'10.2.202.174-169.254.255.255'
p464
I23
sS'10.2.203.254-10.2.203.113'
p465
I2
sS'10.2.6.2-10.2.6.249'
p466
I6
sS'10.2.7.20-10.2.7.249'
p467
I5
sS'10.2.201.164-10.2.203.128'
p468
I1
sS'10.2.202.163-10.2.203.254'
p469
I2
sS'10.2.203.254-10.2.202.82'
p470
I1
sS'10.2.202.149-10.2.203.128'
p471
I1
sS'10.2.201.30-10.2.203.254'
p472
I2
sS'10.2.200.98-10.2.203.254'
p473
I7
sS'10.2.201.176-10.2.203.254'
p474
I1
sS'10.2.1.5-10.2.1.254'
p475
I19
sS'10.2.2.2-10.2.2.249'
p476
I6
sS'10.2.1.249-10.2.1.18'
p477
I2
sS'10.2.1.5-10.2.1.250'
p478
I3
sS'10.2.6.5-10.2.6.254'
p479
I7
sS'10.2.201.95-10.2.202.135'
p480
I4
sS'10.2.202.244-10.2.203.254'
p481
I1
sS'0.0.0.0-169.254.99.163'
p482
I1
sS'10.2.201.95-10.2.201.127'
p483
I1
sS'10.2.203.254-10.2.200.171'
p484
I1
sS'10.2.203.163-10.2.203.254'
p485
I3
sS'10.2.200.139-10.2.200.65'
p486
I2
sS'10.2.202.18-10.2.202.18'
p487
I7
sS'10.2.201.156-10.0.0.241'
p488
I19
sS'10.2.200.51-10.2.203.254'
p489
I6
sS'10.2.200.65-10.2.203.254'
p490
I5
sS'10.2.3.249-10.2.3.6'
p491
I3
sS'10.2.5.254-10.2.5.4'
p492
I1
sS'10.2.202.59-10.2.203.254'
p493
I10
sS'10.2.5.254-10.2.5.1'
p494
I1
sS'10.2.4.102-10.2.4.254'
p495
I3
sS'10.2.7.16-10.2.7.250'
p496
I1
sS'0.0.0.0-169.254.20.185'
p497
I4
sS'10.2.5.254-10.2.5.8'
p498
I1
sS'10.2.203.110-10.2.203.254'
p499
I3
sS'10.2.1.14-10.2.1.205'
p500
I22
sS'10.2.2.1-10.2.2.254'
p501
I1
sS'10.2.1.17-10.2.1.205'
p502
I16
sS'10.2.2.16-10.2.2.254'
p503
I2
sS'0.0.0.0-10.2.7.20'
p504
I3
sS'10.2.203.7-10.2.203.254'
p505
I2
sS'10.2.203.54-10.2.202.25'
p506
I17
sS'10.2.201.251-10.2.203.254'
p507
I2
sS'10.2.200.179-10.2.200.179'
p508
I1
sS'10.2.4.13-10.2.4.19'
p509
I1
sS'10.2.4.254-10.2.4.23'
p510
I6
sS'10.2.4.254-10.2.4.21'
p511
I2
sS'10.2.200.242-10.2.203.254'
p512
I47
sS'10.2.4.254-10.2.4.24'
p513
I4
sS'10.2.201.207-10.2.203.254'
p514
I1
sS'10.2.203.254-10.2.201.213'
p515
I1
sS'10.2.200.173-10.2.203.254'
p516
I41
sS'10.2.0.187-10.2.0.187'
p517
I80
sS'10.2.201.95-10.2.203.54'
p518
I25
sS'10.2.201.64-10.2.203.254'
p519
I26
sS'10.2.203.254-10.2.201.214'
p520
I3
sS'10.2.203.254-10.2.201.149'
p521
I1
sS'10.2.201.86-10.2.200.139'
p522
I1
sS'10.2.200.139-10.2.203.191'
p523
I6
sS'10.2.200.14-10.2.203.254'
p524
I1
sS'10.2.201.90-10.2.201.90'
p525
I2
sS'10.2.203.254-10.2.201.58'
p526
I1
sS'10.2.202.25-10.2.200.220'
p527
I4
sS'10.2.200.152-10.2.200.152'
p528
I5
sS'10.2.203.254-10.2.202.160'
p529
I1
sS'10.2.200.118-10.2.203.254'
p530
I3
sS'10.2.203.254-10.2.201.217'
p531
I4
sS'10.2.203.128-10.2.202.17'
p532
I1
sS'10.2.200.157-10.2.200.157'
p533
I9
sS'10.2.0.254-10.2.0.185'
p534
I1
sS'10.2.201.13-10.2.203.254'
p535
I4
sS'10.2.201.166-10.2.200.139'
p536
I3
sS'10.2.200.248-169.254.255.255'
p537
I19
sS'10.2.2.10-10.2.2.249'
p538
I3
sS'192.168.1.20-192.168.1.1'
p539
I2
sS'10.2.1.8-10.2.1.205'
p540
I1
sS'10.2.202.222-10.2.202.172'
p541
I3
sS'10.2.2.1-10.2.2.250'
p542
I2
sS'10.2.201.101-10.2.200.139'
p543
I1
sS'10.2.202.236-10.2.203.254'
p544
I1
sS'10.2.202.230-10.2.203.254'
p545
I4
sS'10.2.203.191-10.2.202.141'
p546
I3
sS'10.2.200.202-169.254.255.255'
p547
I5
sS'10.2.7.17-10.2.7.205'
p548
I33
sS'10.2.2.6-10.2.2.205'
p549
I51
sS'10.2.1.16-10.2.1.249'
p550
I5
sS'10.2.1.60-10.2.1.254'
p551
I21
sS'10.2.201.95-10.2.202.6'
p552
I1
sS'10.2.1.60-10.2.1.250'
p553
I23
sS'10.2.203.254-10.2.201.103'
p554
I1
sS'10.2.203.5-10.2.203.254'
p555
I6
sS'10.2.7.19-10.2.7.250'
p556
I1
sS'10.2.203.31-10.2.203.254'
p557
I4
sS'10.2.1.249-10.2.1.2'
p558
I3
sS'10.2.2.7-10.2.2.249'
p559
I9
sS'10.2.202.6-158.85.58.62'
p560
I3
sS'10.2.200.252-10.2.203.254'
p561
I2
sS'10.2.201.233-10.2.203.254'
p562
I10
sS'10.2.1.19-10.2.1.230'
p563
I31
sS'10.2.202.88-10.2.203.254'
p564
I3
sS'10.2.200.238-10.2.203.254'
p565
I5
sS'0.0.0.0-10.2.203.128'
p566
I6
sS'10.2.6.20-10.2.6.205'
p567
I1
sS'10.2.2.16-10.2.2.205'
p568
I20
sS'0.0.0.0-10.2.201.21'
p569
I9
sS'10.2.202.17-10.2.203.128'
p570
I1
sS'10.2.6.11-10.2.6.205'
p571
I1
sS'0.0.0.0-10.2.200.242'
p572
I14
sS'0.0.0.0-169.254.173.155'
p573
I2
sS'169.254.44.166-169.254.44.166'
p574
I1
sS'10.2.0.5-10.2.1.18'
p575
I1
sS'10.2.201.54-10.2.201.54'
p576
I1
sS'192.168.43.26-192.168.43.1'
p577
I1
sS'10.2.203.254-10.2.201.172'
p578
I1
sS'10.2.203.101-10.2.203.254'
p579
I1
sS'10.2.203.254-10.2.201.176'
p580
I1
sS'10.2.203.254-10.2.201.179'
p581
I1
sS'10.2.201.75-169.254.255.255'
p582
I6
sS'10.2.200.213-10.2.203.254'
p583
I1
sS'10.2.200.243-10.2.200.243'
p584
I31
sS'10.2.201.92-10.2.203.254'
p585
I1
sS'10.2.202.141-10.2.202.25'
p586
I9
sS'10.2.202.22-10.2.203.254'
p587
I26
sS'10.2.201.53-10.2.203.254'
p588
I5
sS'10.2.203.52-10.2.203.254'
p589
I1
sS'10.2.2.8-10.2.2.250'
p590
I2
sS'10.2.200.202-10.2.200.202'
p591
I3
sS'0.0.0.0-10.2.202.51'
p592
I4
sS'10.2.203.135-10.2.203.135'
p593
I1
sS'10.2.5.254-10.2.5.14'
p594
I1
sS'10.2.2.11-10.2.2.205'
p595
I36
sS'0.0.0.0-10.2.201.90'
p596
I3
sS'10.2.1.7-10.2.1.205'
p597
I1
sS'10.2.201.95-10.2.201.58'
p598
I1
sS'10.2.2.13-10.2.2.230'
p599
I34
sS'10.2.202.141-10.2.200.65'
p600
I2
sS'10.2.202.25-10.2.202.25'
p601
I2
sS'10.2.202.141-10.2.200.105'
p602
I3
sS'10.2.200.86-10.2.200.86'
p603
I1
sS'10.2.203.254-10.2.201.156'
p604
I1
sS'10.2.3.249-10.2.3.10'
p605
I1
sS'10.2.200.154-169.254.255.255'
p606
I19
sS'10.2.202.141-10.2.201.95'
p607
I2
sS'10.2.202.25-10.2.201.86'
p608
I1
sS'10.2.202.172-10.2.203.254'
p609
I557
sS'10.2.0.200-10.2.0.9'
p610
I1
sS'10.2.201.181-10.2.201.181'
p611
I2
sS'10.2.200.154-10.2.200.154'
p612
I1
sS'10.2.3.254-10.2.3.10'
p613
I1
sS'10.2.203.154-10.2.203.154'
p614
I1
sS'10.2.200.20-10.2.203.254'
p615
I62
sS'10.2.1.17-10.2.1.249'
p616
I4
sS'10.2.1.3-10.2.1.249'
p617
I3
sS'10.2.1.14-10.2.1.249'
p618
I4
sS'10.2.2.2-10.2.2.205'
p619
I24
sS'10.2.203.254-10.2.202.29'
p620
I7
sS'10.2.203.254-10.2.202.236'
p621
I1
sS'10.2.10.249-10.2.10.250'
p622
I2
sS'10.2.203.81-10.2.203.81'
p623
I4
sS'0.0.0.0-10.2.201.111'
p624
I3
sS'169.254.98.52-169.254.98.52'
p625
I10
sS'10.2.202.174-10.2.203.254'
p626
I11
sS'10.2.203.254-10.2.201.253'
p627
I3
sS'10.2.201.60-10.2.203.254'
p628
I124
sS'10.2.201.181-10.2.202.172'
p629
I1
sS'10.2.6.3-10.2.6.205'
p630
I2
sS'0.0.0.0-10.2.202.247'
p631
I1
sS'10.2.200.121-10.2.200.139'
p632
I3
sS'10.2.201.181-10.2.201.172'
p633
I4
sS'10.2.203.191-10.2.201.181'
p634
I6
sS'0.0.0.0-10.2.200.152'
p635
I2
sS'10.2.203.254-10.2.201.111'
p636
I1
sS'10.2.202.190-10.2.202.190'
p637
I1
sS'10.2.202.81-10.2.203.254'
p638
I2
sS'0.0.0.0-169.254.187.70'
p639
I2
sS'10.2.2.6-10.2.2.254'
p640
I1
sS'10.2.200.152-10.2.203.254'
p641
I8
sS'10.2.201.172-10.2.203.254'
p642
I1
sS'10.2.1.6-10.2.1.250'
p643
I2
sS'10.2.6.19-10.2.6.254'
p644
I9
sS'10.2.203.254-10.2.200.74'
p645
I9
sS'10.2.203.254-10.2.200.75'
p646
I1
sS'10.2.201.101-10.2.201.121'
p647
I1
sS'10.2.201.181-10.2.203.191'
p648
I3
sS'10.2.203.254-10.2.201.223'
p649
I1
sS'10.2.203.176-10.2.203.254'
p650
I1
sS'10.2.203.254-10.2.201.224'
p651
I4
sS'10.2.203.254-10.2.202.137'
p652
I1
sS'10.2.203.254-10.2.203.69'
p653
I2
sS'10.2.1.1-10.2.1.230'
p654
I52
sS'10.2.200.223-10.2.200.223'
p655
I4
sS'10.2.203.254-10.2.203.63'
p656
I5
sS'10.2.203.128-10.2.203.52'
p657
I1
sS'10.2.203.254-10.2.203.66'
p658
I5
sS'10.2.203.254-10.2.202.124'
p659
I4
sS'10.2.203.254-10.2.202.127'
p660
I25
sS'10.2.1.16-10.2.1.250'
p661
I1
sS'10.2.203.110-10.2.200.105'
p662
I3
sS'10.2.203.81-169.254.255.255'
p663
I12
sS'10.2.203.254-10.2.202.122'
p664
I6
sS'169.254.58.220-169.254.58.220'
p665
I9
sS'10.2.201.21-10.2.203.254'
p666
I6
sS'10.2.203.254-10.2.203.10'
p667
I1
sS'10.2.201.95-10.2.201.172'
p668
I13
sS'10.2.202.141-10.2.203.54'
p669
I1
sS'10.2.201.115-10.2.203.254'
p670
I5
sS'10.2.1.13-10.2.1.230'
p671
I52
sS'10.2.202.51-10.2.202.51'
p672
I2
sS'10.2.2.5-10.2.2.230'
p673
I17
sS'10.2.200.105-10.2.203.254'
p674
I17
sS'10.2.203.25-10.2.203.254'
p675
I4
sS'10.2.202.51-10.2.203.254'
p676
I15
sS'10.2.6.22-10.2.6.205'
p677
I1
sS'10.2.202.49-10.2.203.254'
p678
I6
sS'10.2.6.11-10.2.6.249'
p679
I5
sS'10.2.202.203-10.2.203.254'
p680
I4
sS'10.2.1.1-10.2.1.249'
p681
I2
sS'10.2.202.191-10.2.203.254'
p682
I120
sS'10.2.202.143-10.2.203.254'
p683
I1
sS'10.2.203.254-10.2.203.86'
p684
I1
sS'0.0.0.0-10.2.203.21'
p685
I5
sS'10.2.0.249-10.2.0.68'
p686
I3
sS'10.2.200.139-10.2.201.181'
p687
I16
sS'10.2.2.3-10.2.2.250'
p688
I2
sS'10.2.203.54-10.2.203.254'
p689
I1
sS'10.2.2.250-10.2.2.3'
p690
I1
sS'10.2.203.254-10.2.202.49'
p691
I3
sS'10.2.0.249-10.2.0.64'
p692
I62
sS'10.2.0.249-10.2.0.65'
p693
I63
sS'10.2.200.121-10.2.203.254'
p694
I4
sS'10.2.0.249-10.2.0.67'
p695
I65
sS'10.2.201.95-10.2.203.254'
p696
I4
sS'10.2.201.161-10.2.203.254'
p697
I8
sS'10.2.201.181-10.2.200.121'
p698
I2
sS'10.2.203.254-10.2.202.230'
p699
I1
sS'10.2.7.24-10.2.7.250'
p700
I1
sS'10.2.201.58-10.2.203.254'
p701
I6
sS'10.2.202.18-10.2.203.254'
p702
I3
sS'10.2.203.254-10.2.202.234'
p703
I9
sS'10.2.1.4-10.2.1.250'
p704
I4
sS'10.2.6.20-10.2.6.249'
p705
I8
sS'10.2.2.16-10.2.2.249'
p706
I4
sS'10.2.6.9-10.2.6.250'
p707
I3
sS'10.2.6.16-10.2.6.249'
p708
I8
sS'10.2.7.8-10.2.7.250'
p709
I1
sS'0.0.0.0-10.2.202.172'
p710
I2
sS'10.2.202.224-10.2.202.224'
p711
I1
sS'10.2.6.6-10.2.6.205'
p712
I1
sS'10.2.4.249-10.2.4.1'
p713
I2
sS'10.2.2.5-10.2.2.18'
p714
I1
sS'10.2.4.249-10.2.4.3'
p715
I4
sS'10.2.201.95-10.2.202.141'
p716
I1
sS'10.2.4.249-10.2.4.5'
p717
I4
sS'10.2.4.249-10.2.4.4'
p718
I1
sS'10.2.4.249-10.2.4.7'
p719
I4
sS'10.2.4.249-10.2.4.6'
p720
I3
sS'10.2.4.249-10.2.4.9'
p721
I5
sS'10.2.2.3-10.2.2.254'
p722
I17
sS'10.2.203.54-10.2.200.139'
p723
I1
sS'10.2.202.5-10.2.203.254'
p724
I3
sS'10.2.6.249-10.2.6.10'
p725
I2
sS'0.0.0.0-10.2.2.3'
p726
I3
sS'10.2.202.25-10.2.203.191'
p727
I5
sS'0.0.0.0-10.2.2.5'
p728
I3
sS'10.2.203.35-10.2.203.254'
p729
I4
sS'10.2.200.133-10.2.203.254'
p730
I1
sS'10.2.2.11-10.2.2.230'
p731
I46
sS'10.2.200.65-10.2.201.95'
p732
I2
sS'10.2.2.11-10.2.2.249'
p733
I4
sS'10.2.6.249-10.2.6.1'
p734
I2
sS'0.0.0.0-10.2.201.58'
p735
I3
sS'10.2.201.164-10.2.201.149'
p736
I2
sS'10.2.203.72-10.2.203.254'
p737
I9
sS'10.2.0.254-10.2.0.10'
p738
I36
sS'10.2.203.128-10.2.201.58'
p739
I1
sS'10.2.200.139-10.2.202.6'
p740
I1
sS'10.2.6.7-10.2.6.205'
p741
I1
sS'10.2.7.11-10.2.7.254'
p742
I7
sS'10.2.202.172-10.2.201.181'
p743
I6
sS'0.0.0.0-10.2.203.52'
p744
I1
sS'10.2.2.250-10.2.2.4'
p745
I2
sS'10.2.201.223-10.2.203.254'
p746
I4
sS'10.2.7.4-10.2.7.205'
p747
I19
sS'10.2.203.254-10.2.202.194'
p748
I6
sS'10.2.201.86-10.2.202.141'
p749
I1
sS'10.2.203.254-10.2.202.190'
p750
I1
sS'10.2.202.25-10.2.200.139'
p751
I4
sS'10.2.202.108-10.2.203.254'
p752
I26
sS'10.2.6.249-10.2.6.6'
p753
I1
sS'10.2.200.139-10.2.200.139'
p754
I1
sS'0.0.0.0-10.2.202.25'
p755
I6
sS'0.0.0.0-169.254.58.220'
p756
I26
sS'10.2.1.3-10.2.1.205'
p757
I25
sS'10.2.203.254-10.2.203.135'
p758
I1
sS'10.2.2.8-10.2.2.205'
p759
I35
sS'10.2.203.110-10.2.203.54'
p760
I1
sS'10.2.2.1-10.2.2.230'
p761
I49
sS'10.2.200.139-10.2.202.141'
p762
I4
sS'10.2.1.7-10.2.1.250'
p763
I3
sS'10.2.6.254-10.2.6.8'
p764
I4
sS'10.2.203.191-10.2.202.25'
p765
I3
sS'10.2.200.209-10.2.203.254'
p766
I1
sS'10.2.200.176-10.2.203.254'
p767
I22
sS'10.2.2.249-10.2.2.4'
p768
I1
sS'0.0.0.0-10.2.202.200'
p769
I2
sS'10.2.203.254-10.2.203.101'
p770
I1
sS'10.2.2.249-10.2.2.9'
p771
I6
sS'10.2.203.254-10.2.200.213'
p772
I4
sS'10.2.203.254-10.2.200.120'
p773
I1
sS'10.2.203.254-10.2.203.1'
p774
I1
sS'10.2.203.254-10.2.203.112'
p775
I9
sS'10.2.6.14-10.2.6.249'
p776
I9
sS'10.2.203.176-10.2.203.176'
p777
I5
sS'0.0.0.0-10.2.200.97'
p778
I3
sS'10.2.203.254-10.2.203.7'
p779
I1
sS'10.2.200.139-10.2.202.25'
p780
I5
sS'10.2.200.242-10.2.200.242'
p781
I5
sS'10.2.201.181-10.2.201.31'
p782
I4
sS'10.2.200.165-10.2.203.254'
p783
I3
sS'10.2.201.156-10.2.203.254'
p784
I1
sS'10.2.203.128-10.2.202.149'
p785
I1
sS'10.2.202.25-10.2.203.54'
p786
I5
sS'10.2.200.206-10.2.203.254'
p787
I1
sS'10.2.202.122-10.2.203.254'
p788
I1
sS'10.2.202.174-10.2.202.174'
p789
I8
sS'10.2.203.254-10.2.203.143'
p790
I9
sS'10.2.200.171-10.2.203.254'
p791
I6
sS'0.0.0.0-10.2.201.161'
p792
I3
sS'10.2.7.17-10.2.7.249'
p793
I6
sS'10.2.2.14-10.2.2.230'
p794
I46
sS'0.0.0.0-169.254.176.13'
p795
I2
sS'10.2.200.128-10.2.203.254'
p796
I5
sS'10.2.201.0-10.2.203.254'
p797
I1
sS'10.2.200.78-10.2.203.254'
p798
I1
sS'10.2.203.254-10.2.200.28'
p799
I1
sS'10.2.201.27-10.2.203.254'
p800
I11
sS'10.2.7.249-10.2.7.10'
p801
I2
sS'10.2.203.69-10.2.203.254'
p802
I1
sS'10.2.7.20-10.2.7.254'
p803
I17
sS'10.2.200.157-10.2.203.254'
p804
I3
sS'10.2.3.250-10.2.3.9'
p805
I4
sS'10.2.203.106-10.2.203.254'
p806
I1
sS'10.2.202.6-64.233.186.95'
p807
I3
sS'10.2.6.250-10.2.6.11'
p808
I1
sS'0.0.0.0-10.2.1.2'
p809
I3
sS'10.2.1.6-10.2.1.205'
p810
I10
sS'10.2.202.25-10.2.202.6'
p811
I1
sS'10.2.1.17-10.2.1.230'
p812
I53
sS'10.2.7.6-10.2.7.249'
p813
I4
sS'10.2.3.250-10.2.3.4'
p814
I3
sS'10.2.3.250-10.2.3.7'
p815
I2
sS'10.2.200.230-10.2.203.254'
p816
I2
sS'10.2.202.171-10.2.202.171'
p817
I2
sS'10.2.1.8-10.2.1.230'
p818
I52
sS'10.2.201.164-10.2.201.164'
p819
I4
sS'0.0.0.0-169.254.213.217'
p820
I1
sS'10.2.7.13-10.2.7.254'
p821
I1
sS'10.2.203.54-10.2.202.141'
p822
I38
sS'10.2.1.1-10.2.1.205'
p823
I26
sS'10.2.200.75-10.2.203.254'
p824
I11
sS'10.2.7.13-10.2.7.250'
p825
I1
sS'10.2.7.9-10.2.7.254'
p826
I2
sS'10.2.203.254-10.2.201.0'
p827
I1
sS'10.2.201.103-10.2.201.103'
p828
I1
sS'10.2.6.254-10.2.6.205'
p829
I188
sS'10.2.6.250-10.2.6.20'
p830
I1
sS'10.2.201.247-10.2.203.254'
p831
I1
sS'10.2.201.95-10.2.203.191'
p832
I5
sS'10.2.203.254-10.2.200.223'
p833
I1
sS'10.2.203.254-10.2.200.225'
p834
I1
sS'10.2.200.248-10.2.203.254'
p835
I22
sS'10.2.203.254-10.2.200.227'
p836
I1
sS'10.2.203.110-10.2.200.139'
p837
I5
sS'10.2.200.139-10.2.203.110'
p838
I7
sS'10.2.201.95-10.2.200.105'
p839
I6
sS'10.2.203.254-10.2.201.68'
p840
I2
sS'10.2.203.11-10.2.203.254'
p841
I4
sS'0.0.0.0-10.2.7.21'
p842
I3
sS'10.2.202.182-10.2.203.254'
p843
I1
sS'10.2.203.254-10.2.201.60'
p844
I1
sS'10.2.203.128-10.2.202.14'
p845
I1
sS'10.2.7.3-10.2.7.205'
p846
I2
sS'10.2.201.95-10.2.202.149'
p847
I4
sS'10.2.202.10-10.2.203.254'
p848
I5
sS'10.2.201.195-10.2.203.254'
p849
I1
sS'10.2.201.60-10.2.200.139'
p850
I4
sS'10.2.2.10-10.2.2.250'
p851
I2
sS'10.2.200.65-10.2.202.25'
p852
I2
sS'0.0.0.0-10.2.1.60'
p853
I8
sS'10.2.203.130-10.2.203.254'
p854
I3
sS'10.2.5.254-10.2.5.13'
p855
I1
sS'10.2.201.103-192.168.43.1'
p856
I1
sS'10.2.7.254-10.2.7.205'
p857
I164
sS'10.2.203.254-10.2.200.248'
p858
I1
sS'10.2.5.254-10.2.5.19'
p859
I6
sS'10.2.5.254-10.2.5.18'
p860
I1
sS'0.0.0.0-169.254.44.166'
p861
I4
sS'10.2.201.60-10.2.202.25'
p862
I3
sS'10.2.200.220-10.2.201.95'
p863
I1
sS'0.0.0.0-169.254.145.200'
p864
I3
sS'10.2.4.249-10.2.4.2'
p865
I1
sS'10.2.2.7-10.2.2.250'
p866
I1
sS'10.2.200.159-10.2.203.254'
p867
I7
sS'10.2.2.6-10.2.2.250'
p868
I1
sS'10.2.1.60-10.2.1.249'
p869
I19
sS'10.2.201.58-10.2.203.128'
p870
I1
sS'10.2.203.254-10.2.201.54'
p871
I1
sS'10.2.200.230-10.2.200.230'
p872
I4
sS'10.2.6.249-10.2.6.18'
p873
I3
sS'10.2.200.109-10.2.203.254'
p874
I9
sS'10.2.1.10-10.2.1.230'
p875
I53
sS'0.0.0.0-10.2.203.135'
p876
I2
sS'10.2.1.4-10.2.1.205'
p877
I25
sS'10.2.203.254-10.2.200.242'
p878
I2
sS'10.2.6.7-10.2.6.249'
p879
I9
sS'10.2.201.31-10.2.202.141'
p880
I1
sS'10.2.7.5-10.2.7.249'
p881
I3
sS'10.2.200.139-10.2.201.60'
p882
I2
sS'10.2.202.172-10.2.202.172'
p883
I1
sS'10.2.200.40-10.2.203.254'
p884
I2
sS'0.0.0.0-10.2.201.164'
p885
I3
sS'10.2.203.110-10.2.201.181'
p886
I3
sS'10.2.6.249-10.2.6.17'
p887
I2
sS'10.2.202.160-10.2.203.254'
p888
I3
sS'10.2.203.254-10.2.201.162'
p889
I1
sS'10.2.7.249-10.2.7.15'
p890
I1
sS'10.2.203.254-10.2.200.168'
p891
I12
sS'10.2.7.249-10.2.7.13'
p892
I4
sS'10.2.7.249-10.2.7.12'
p893
I4
sS'10.2.203.254-10.2.201.164'
p894
I1
sS'10.2.6.2-10.2.6.254'
p895
I6
sS'10.2.7.22-10.2.7.250'
p896
I1
sS'10.2.203.254-10.2.200.162'
p897
I12
sS'10.2.203.254-10.2.202.41'
p898
I1
sS'10.2.2.13-10.2.2.254'
p899
I19
sS'169.254.20.185-169.254.20.185'
p900
I2
sS'10.2.2.13-10.2.2.250'
p901
I1
sS'10.2.2.8-10.2.2.249'
p902
I7
sS'10.2.201.95-10.2.200.139'
p903
I7
sS'10.2.200.139-10.2.201.86'
p904
I4
sS'10.2.201.95-10.2.201.31'
p905
I4
sS'10.2.201.95-10.2.201.30'
p906
I4
sS'0.0.0.0-10.2.201.86'
p907
I3
sS'10.2.202.141-10.2.200.118'
p908
I10
sS'10.2.2.250-10.2.2.5'
p909
I2
sS'10.2.4.13-10.2.4.11'
p910
I1
sS'10.2.200.139-10.2.200.220'
p911
I18
sS'10.2.203.54-10.2.201.181'
p912
I39
sS'10.2.7.19-10.2.7.249'
p913
I6
sS'0.0.0.0-10.2.203.81'
p914
I3
sS'10.2.203.21-10.2.203.21'
p915
I2
sS'10.2.203.54-10.2.201.95'
p916
I5
sS'10.2.0.5-10.2.1.2'
p917
I1
sS'10.2.2.3-10.2.2.230'
p918
I45
sS'10.2.200.121-10.2.202.25'
p919
I5
sS'10.2.202.11-10.2.203.254'
p920
I9
sS'10.2.202.141-10.2.203.10'
p921
I2
sS'10.2.4.254-10.2.4.205'
p922
I180
sS'10.2.6.21-10.2.6.205'
p923
I1
sS'10.2.3.254-10.2.3.205'
p924
I185
sS'10.2.202.184-10.2.203.254'
p925
I3
sS'10.2.202.159-10.2.203.254'
p926
I4
sS'10.2.4.13-10.2.4.7'
p927
I1
sS'10.2.1.14-10.2.1.250'
p928
I1
sS'10.2.4.13-10.2.4.5'
p929
I1
sS'10.2.201.246-10.2.203.254'
p930
I2
sS'10.2.200.75-10.0.8.1'
p931
I1
sS'10.2.4.13-10.2.4.1'
p932
I1
sS'10.2.203.254-10.2.201.98'
p933
I1
sS'10.2.203.254-10.2.201.97'
p934
I5
sS'10.2.203.254-10.2.201.96'
p935
I5
sS'10.2.1.3-10.2.1.250'
p936
I2
sS'10.2.2.8-10.2.2.230'
p937
I54
sS'10.2.4.13-10.2.4.9'
p938
I1
sS'10.2.200.102-10.2.203.254'
p939
I23
sS'10.2.200.222-10.2.203.254'
p940
I33
sS'10.2.201.95-10.2.200.97'
p941
I10
sS'0.0.0.0-10.2.200.179'
p942
I3
sS'0.0.0.0-169.254.110.157'
p943
I2
sS'10.2.2.2-10.2.2.230'
p944
I56
sS'10.2.203.254-10.2.202.15'
p945
I1
sS'0.0.0.0-10.2.200.171'
p946
I3
sS'10.2.6.2-10.2.6.205'
p947
I1
sS'10.2.203.254-10.2.203.27'
p948
I6
sS'10.2.201.77-10.2.203.254'
p949
I1
sS'10.2.0.249-10.2.0.250'
p950
I3
sS'10.2.200.243-10.2.203.254'
p951
I11
sS'10.2.202.141-10.2.201.31'
p952
I6
sS'10.2.6.19-10.2.6.249'
p953
I13
sS'10.2.2.254-10.2.2.19'
p954
I1
sS'10.2.203.254-10.2.203.96'
p955
I1
sS'10.2.1.2-10.2.1.230'
p956
I24
sS'10.2.203.254-10.2.203.40'
p957
I1
sS'10.2.200.139-10.2.203.10'
p958
I2
sS'10.2.1.6-10.2.1.249'
p959
I1
sS'10.2.203.254-10.2.200.65'
p960
I5
sS'10.2.203.254-10.2.200.64'
p961
I1
sS'10.2.200.109-10.2.200.109'
p962
I4
sS'10.2.4.249-10.2.4.8'
p963
I4
sS'10.2.203.254-10.2.200.60'
p964
I1
sS'10.2.1.5-10.2.1.230'
p965
I54
sS'0.0.0.0-10.2.201.181'
p966
I5
sS'10.2.2.249-10.2.2.18'
p967
I4
sS'10.2.7.20-10.2.7.205'
p968
I34
sS'169.254.181.210-169.254.181.210'
p969
I1
sS'10.2.2.249-10.2.2.17'
p970
I2
sS'10.2.201.250-10.2.203.254'
p971
I3
sS'10.2.4.250-10.2.4.6'
p972
I1
sS'10.2.4.250-10.2.4.4'
p973
I1
sS'10.2.4.250-10.2.4.2'
p974
I2
sS'10.2.202.83-10.2.203.254'
p975
I1
sS'10.2.201.31-10.2.203.254'
p976
I6
sS'10.2.203.254-10.2.203.70'
p977
I9
sS'10.0.8.117-10.0.8.1'
p978
I1
sS'10.2.1.9-10.2.1.230'
p979
I50
sS'0.0.0.0-169.254.228.130'
p980
I3
sS'10.2.2.5-10.2.2.9'
p981
I1
sS'10.2.203.254-10.2.200.19'
p982
I4
sS'10.2.2.15-10.2.2.249'
p983
I7
sS'0.0.0.0-10.2.202.230'
p984
I5
sS'10.2.1.6-10.2.1.230'
p985
I48
sS'10.2.203.254-10.2.200.14'
p986
I1
sS'10.2.200.121-10.2.201.95'
p987
I4
sS'10.2.203.254-10.2.202.138'
p988
I1
sS'10.2.203.2-10.2.203.254'
p989
I3
sS'10.2.201.181-10.2.201.60'
p990
I2
sS'10.2.203.254-10.2.201.28'
p991
I1
sS'10.2.203.254-10.2.201.29'
p992
I1
sS'10.2.5.254-10.2.5.11'
p993
I1
sS'0.0.0.0-10.2.201.54'
p994
I3
sS'10.2.4.13-10.2.4.16'
p995
I1
sS'10.2.7.22-10.2.7.205'
p996
I23
sS'10.2.1.18-10.2.1.249'
p997
I2
sS'10.2.203.254-10.2.201.27'
p998
I7
sS'10.2.201.58-169.254.255.255'
p999
I5
sS'10.2.203.254-10.2.201.25'
p1000
I2
sS'10.2.1.1-10.2.1.250'
p1001
I1
sS'10.2.7.5-10.2.7.205'
p1002
I1
sS'10.2.1.1-10.2.1.254'
p1003
I22
sS'10.2.201.111-10.2.201.111'
p1004
I1
sS'10.2.202.141-10.2.203.191'
p1005
I22
sS'10.2.201.101-10.2.200.242'
p1006
I15
sS'10.2.203.128-10.2.203.254'
p1007
I6
sS'10.2.203.254-10.2.202.81'
p1008
I1
sS'10.2.1.10-10.2.1.249'
p1009
I5
sS'10.2.7.7-10.2.7.249'
p1010
I7
sS'10.2.1.15-10.2.1.250'
p1011
I1
sS'10.2.200.97-10.2.201.101'
p1012
I1
sS'10.2.201.86-10.2.201.86'
p1013
I2
sS'10.2.200.65-10.2.202.141'
p1014
I2
sS'10.2.202.14-10.2.203.254'
p1015
I7
sS'10.2.0.254-10.2.0.205'
p1016
I203
sS'10.2.203.254-10.2.202.229'
p1017
I3
sS'10.2.1.13-10.2.1.250'
p1018
I3
sS'10.2.1.4-10.2.1.249'
p1019
I3
sS'10.2.203.254-10.2.202.220'
p1020
I2
sS'10.2.202.14-10.2.202.14'
p1021
I1
sS'10.2.203.254-10.2.202.224'
p1022
I1
sS'10.2.201.181-10.2.200.118'
p1023
I1
sS'10.2.0.254-10.2.0.3'
p1024
I1
sS'10.2.1.2-10.2.1.254'
p1025
I11
sS'10.2.203.154-10.2.203.254'
p1026
I2
sS'10.2.202.25-10.2.201.172'
p1027
I12
sS'10.2.6.16-10.2.6.254'
p1028
I9
sS'10.2.200.171-10.2.200.171'
p1029
I3
sS'10.2.0.254-10.2.0.9'
p1030
I1
sS'10.2.2.16-10.2.2.250'
p1031
I2
sS'10.2.7.24-10.2.7.249'
p1032
I7
sS'10.2.203.1-10.2.203.1'
p1033
I2
sS'10.2.203.10-10.2.202.177'
p1034
I2
sS'10.2.203.254-10.2.202.171'
p1035
I2
sS'10.2.0.5-10.2.1.1'
p1036
I1
sS'10.2.200.36-10.2.203.254'
p1037
I2
sS'10.2.202.25-10.2.203.10'
p1038
I1
sS'10.2.203.178-10.2.203.254'
p1039
I21
sS'10.2.200.71-10.2.203.254'
p1040
I2
sS'10.2.201.75-10.2.201.75'
p1041
I2
sS'10.2.1.18-10.2.1.254'
p1042
I6
sS'10.2.1.250-10.2.1.19'
p1043
I2
sS'10.2.201.95-10.2.203.10'
p1044
I2
sS'10.2.201.31-10.2.201.31'
p1045
I3
sS'10.2.203.254-10.2.203.183'
p1046
I1
sS'10.2.203.254-10.2.201.120'
p1047
I1
sS'10.2.1.19-10.2.1.252'
p1048
I4
sS'10.2.1.19-10.2.1.250'
p1049
I2
sS'0.0.0.0-10.2.203.86'
p1050
I3
sS'10.2.1.19-10.2.1.254'
p1051
I14
sS'10.2.201.86-10.2.203.10'
p1052
I1
sS'10.2.7.19-10.2.7.205'
p1053
I35
sS'10.2.202.174-10.2.203.128'
p1054
I1
sS'10.2.0.181-10.2.0.254'
p1055
I1
sS'10.2.4.13-10.2.4.12'
p1056
I1
sS'0.0.0.0-10.2.200.223'
p1057
I3
sS'10.2.202.141-10.2.201.172'
p1058
I7
sS'10.2.7.11-10.2.7.249'
p1059
I8
sS'10.2.6.250-10.2.6.5'
p1060
I1
sS'10.2.0.5-10.2.7.4'
p1061
I1
sS'10.2.6.16-10.2.6.205'
p1062
I1
sS'10.2.1.254-10.2.1.20'
p1063
I3
sS'10.2.1.254-10.2.1.21'
p1064
I4
sS'10.2.5.254-10.2.5.22'
p1065
I5
sS'10.2.0.5-10.2.7.9'
p1066
I1
sS'10.2.5.254-10.2.5.24'
p1067
I4
sS'10.2.202.25-10.2.203.110'
p1068
I1
sS'10.2.202.25-10.2.200.121'
p1069
I4
sS'10.2.200.139-10.2.201.101'
p1070
I5
sS'10.2.200.139-10.2.203.54'
p1071
I13
sS'10.2.200.139-10.2.200.121'
p1072
I10
sS'10.2.201.181-10.2.202.135'
p1073
I4
sS'10.2.203.254-10.2.203.136'
p1074
I5
sS'10.2.203.254-10.2.201.195'
p1075
I1
sS'0.0.0.0-10.2.200.176'
p1076
I2
sS'10.2.203.183-10.2.203.254'
p1077
I6
sS'10.2.200.237-10.2.203.254'
p1078
I2
sS'0.0.0.0-10.2.202.190'
p1079
I3
sS'10.2.202.169-10.2.203.254'
p1080
I1
sS'10.2.1.7-10.2.1.230'
p1081
I55
sS'10.2.203.254-10.2.200.206'
p1082
I2
sS'10.2.6.6-10.2.6.254'
p1083
I6
sS'0.0.0.0-10.2.202.36'
p1084
I1
sS'10.2.201.121-10.2.203.254'
p1085
I1
sS'10.2.200.136-10.2.203.254'
p1086
I14
sS'10.2.6.6-10.2.6.250'
p1087
I1
sS'10.2.2.1-10.2.2.205'
p1088
I34
sS'0.0.0.0-10.2.200.248'
p1089
I3
sS'10.2.4.250-10.2.4.18'
p1090
I3
sS'10.2.4.13-10.2.4.22'
p1091
I1
sS'10.2.200.139-10.2.202.172'
p1092
I5
sS'10.2.201.164-10.2.203.254'
p1093
I5
sS'10.2.201.90-10.2.203.254'
p1094
I15
sS'10.2.1.249-10.2.1.12'
p1095
I4
sS'10.2.4.250-10.2.4.17'
p1096
I2
sS'10.2.7.16-10.2.7.249'
p1097
I10
sS'10.2.201.86-10.2.203.128'
p1098
I1
sS'10.2.203.125-10.2.203.254'
p1099
I1
sS'10.2.1.9-10.2.1.250'
p1100
I1
sS'10.2.7.21-10.2.7.249'
p1101
I6
sS'10.2.200.227-10.2.203.254'
p1102
I2
sS'10.2.201.149-10.2.201.30'
p1103
I1
sS'10.2.6.254-10.2.6.13'
p1104
I5
sS'10.2.201.111-10.2.203.254'
p1105
I1
sS'10.2.6.254-10.2.6.10'
p1106
I1
sS'10.2.6.254-10.2.6.15'
p1107
I5
sS'0.0.0.0-169.254.98.52'
p1108
I28
sS'10.2.3.254-10.2.3.5'
p1109
I1
sS'10.2.3.254-10.2.3.4'
p1110
I1
sS'10.2.3.254-10.2.3.7'
p1111
I2
sS'10.2.1.18-10.2.1.205'
p1112
I18
sS'10.2.3.254-10.2.3.1'
p1113
I4
sS'10.2.3.254-10.2.3.3'
p1114
I1
sS'10.2.1.9-10.2.1.254'
p1115
I5
sS'10.2.7.22-10.2.7.249'
p1116
I8
sS'10.2.202.20-10.2.203.254'
p1117
I1
sS'10.2.6.11-10.2.6.250'
p1118
I1
sS'10.2.201.42-10.2.203.254'
p1119
I3
sS'10.2.6.14-10.2.6.254'
p1120
I6
sS'10.2.200.220-10.2.202.141'
p1121
I35
sS'10.2.7.23-10.2.7.249'
p1122
I6
sS'10.2.203.199-10.2.203.254'
p1123
I2
sS'10.2.202.6-10.2.203.254'
p1124
I3
sS'10.2.201.181-10.2.203.254'
p1125
I3
sS'10.2.203.254-10.2.200.50'
p1126
I8
sS'10.2.1.250-10.2.1.18'
p1127
I1
sS'10.2.200.97-10.2.203.254'
p1128
I17
sS'10.2.201.30-10.2.203.128'
p1129
I1
sS'10.2.203.254-10.2.202.56'
p1130
I12
sS'10.2.2.5-10.2.2.19'
p1131
I1
sS'10.2.202.200-10.2.203.254'
p1132
I2
sS'0.0.0.0-10.2.200.202'
p1133
I3
sS'10.2.203.254-10.2.200.229'
p1134
I1
sS'10.2.200.179-10.2.203.254'
p1135
I6
sS'10.2.2.15-10.2.2.205'
p1136
I31
sS'10.2.202.25-10.2.200.65'
p1137
I2
sS'10.2.202.33-10.2.203.254'
p1138
I11
sS'10.2.201.127-10.2.203.254'
p1139
I6
s.