(dp0
S'0.0.0.0-169.254.214.169'
p1
I3
sS'0.0.0.0-169.254.20.90'
p2
I3
sS'169.254.85.197-169.254.85.197'
p3
I2
sS'0.0.0.0-169.254.239.136'
p4
I2
sS'0.0.0.0-169.254.121.206'
p5
I13
sS'0.0.0.0-169.254.93.228'
p6
I2
sS'172.17.98.25-172.17.98.25'
p7
I1
sS'0.0.0.0-169.254.255.94'
p8
I5
sS'172.17.98.8-172.17.98.8'
p9
I12
sS'169.254.43.92-169.254.43.92'
p10
I1
sS'172.17.98.1-172.17.98.29'
p11
I2
sS'0.0.0.0-169.254.191.208'
p12
I2
sS'0.0.0.0-169.254.81.169'
p13
I1
sS'172.17.98.1-172.17.98.25'
p14
I4
sS'172.17.98.1-172.17.98.21'
p15
I1
sS'0.0.0.0-169.254.159.116'
p16
I1
sS'0.0.0.0-172.17.98.26'
p17
I1
sS'0.0.0.0-172.17.98.21'
p18
I1
sS'0.0.0.0-169.254.238.208'
p19
I18
sS'0.0.0.0-169.254.50.198'
p20
I1
sS'0.0.0.0-169.254.120.206'
p21
I2
sS'0.0.0.0-169.254.57.201'
p22
I6
sS'0.0.0.0-169.254.210.45'
p23
I2
sS'0.0.0.0-169.254.84.35'
p24
I9
sS'172.17.98.9-172.17.98.1'
p25
I6
sS'169.254.229.96-169.254.229.96'
p26
I2
sS'100.100.204.182-8.8.8.8'
p27
I3
sS'0.0.0.0-169.254.253.56'
p28
I2
sS'169.254.70.115-169.254.70.115'
p29
I10
sS'0.0.0.0-169.254.128.119'
p30
I3
sS'0.0.0.0-169.254.236.142'
p31
I1
sS'172.17.98.15-172.17.98.1'
p32
I2
sS'172.17.98.14-172.17.98.1'
p33
I1
sS'0.0.0.0-169.254.84.201'
p34
I1
sS'172.17.98.24-172.17.98.1'
p35
I4
sS'172.17.98.18-172.17.98.1'
p36
I14
sS'169.254.120.206-169.254.120.206'
p37
I1
sS'172.17.98.8-172.17.98.1'
p38
I8
sS'0.0.0.0-169.254.124.98'
p39
I8
sS'172.17.98.26-172.17.98.1'
p40
I9
sS'0.0.0.0-169.254.48.107'
p41
I2
sS'169.254.81.169-169.254.81.169'
p42
I1
sS'0.0.0.0-169.254.182.116'
p43
I3
sS'0.0.0.0-169.254.114.30'
p44
I3
sS'169.254.133.62-169.254.133.62'
p45
I1
sS'0.0.0.0-169.254.221.52'
p46
I2
sS'169.254.85.197-17.173.254.223'
p47
I10
sS'169.254.59.232-169.254.59.232'
p48
I1
sS'172.17.98.17-172.17.98.17'
p49
I2
sS'0.0.0.0-169.254.43.8'
p50
I3
sS'0.0.0.0-169.254.38.201'
p51
I2
sS'169.254.206.143-169.254.206.143'
p52
I1
sS'0.0.0.0-169.254.82.147'
p53
I1
sS'169.254.255.94-169.254.255.94'
p54
I2
sS'10.168.90.225-172.17.98.1'
p55
I1
sS'172.17.98.11-172.17.98.1'
p56
I18
sS'172.17.98.16-172.17.98.16'
p57
I1
sS'169.254.251.176-169.254.251.176'
p58
I1
sS'172.17.98.12-172.17.98.1'
p59
I4
sS'10.171.235.242-172.17.98.1'
p60
I1
sS'0.0.0.0-169.254.247.88'
p61
I1
sS'169.254.32.63-169.254.32.63'
p62
I1
sS'0.0.0.0-169.254.59.232'
p63
I2
sS'169.254.214.169-169.254.214.169'
p64
I1
sS'169.254.241.41-169.254.241.41'
p65
I1
sS'0.0.0.0-169.254.72.40'
p66
I3
sS'172.17.98.4-172.17.98.1'
p67
I1
sS'0.0.0.0-169.254.123.32'
p68
I51
sS'169.254.47.8-169.254.47.8'
p69
I1
sS'172.17.98.29-172.17.98.1'
p70
I2
sS'0.0.0.0-169.254.143.5'
p71
I2
sS'0.0.0.0-169.254.193.242'
p72
I4
sS'169.254.84.201-169.254.84.201'
p73
I1
sS'169.254.2.81-169.254.2.81'
p74
I3
sS'0.0.0.0-169.254.111.1'
p75
I1
sS'172.17.98.1-172.17.98.15'
p76
I1
sS'172.17.98.1-172.17.98.14'
p77
I1
sS'172.17.98.1-172.17.98.17'
p78
I3
sS'172.17.98.1-172.17.98.16'
p79
I4
sS'0.0.0.0-169.254.81.142'
p80
I2
sS'172.17.98.1-172.17.98.10'
p81
I2
sS'172.17.98.1-172.17.98.12'
p82
I1
sS'0.0.0.0-169.254.182.149'
p83
I3
sS'169.254.50.198-169.254.50.198'
p84
I1
sS'172.17.98.1-172.17.98.18'
p85
I14
sS'169.254.221.52-169.254.221.52'
p86
I1
sS'169.254.182.116-169.254.182.116'
p87
I1
sS'169.254.124.98-169.254.124.98'
p88
I3
sS'0.0.0.0-169.254.238.160'
p89
I4
sS'0.0.0.0-169.254.229.96'
p90
I1
sS'0.0.0.0-169.254.205.42'
p91
I3
sS'0.0.0.0-169.254.156.61'
p92
I1
sS'172.17.98.10-172.17.98.1'
p93
I20
sS'0.0.0.0-169.254.249.228'
p94
I1
sS'172.17.98.1-172.17.98.11'
p95
I3
sS'169.254.193.242-169.254.193.242'
p96
I2
sS'169.254.205.37-169.254.205.37'
p97
I1
sS'169.254.123.32-50.22.225.74'
p98
I2
sS'172.17.98.17-172.17.98.1'
p99
I2
sS'169.254.182.149-169.254.182.149'
p100
I1
sS'0.0.0.0-169.254.158.66'
p101
I3
sS'0.0.0.0-169.254.35.163'
p102
I1
sS'169.254.31.185-169.254.31.185'
p103
I1
sS'0.0.0.0-172.17.98.29'
p104
I1
sS'0.0.0.0-169.254.102.136'
p105
I18
sS'0.0.0.0-169.254.4.243'
p106
I2
sS'169.254.43.8-169.254.43.8'
p107
I1
sS'100.70.160.245-172.17.98.1'
p108
I24
sS'0.0.0.0-169.254.244.104'
p109
I5
sS'169.254.249.228-169.254.249.228'
p110
I1
sS'169.254.99.88-169.254.99.88'
p111
I1
sS'0.0.0.0-169.254.251.176'
p112
I2
sS'169.254.38.201-169.254.38.201'
p113
I2
sS'169.254.121.206-169.254.121.206'
p114
I5
sS'169.254.139.25-169.254.139.25'
p115
I1
sS'0.0.0.0-169.254.121.247'
p116
I2
sS'0.0.0.0-169.254.233.95'
p117
I2
sS'0.0.0.0-169.254.31.185'
p118
I2
sS'169.254.123.32-169.254.123.32'
p119
I35
sS'169.254.13.214-169.254.13.214'
p120
I1
sS'0.0.0.0-192.168.0.1'
p121
I42
sS'0.0.0.0-169.254.38.246'
p122
I4
sS'0.0.0.0-169.254.164.170'
p123
I1
sS'169.254.238.160-169.254.238.160'
p124
I1
sS'0.0.0.0-169.254.85.197'
p125
I3
sS'10.155.212.15-200.45.48.233'
p126
I1
sS'100.100.204.182-200.0.243.10'
p127
I4
sS'0.0.0.0-169.254.63.42'
p128
I3
sS'169.254.140.119-169.254.140.119'
p129
I1
sS'169.254.114.30-169.254.114.30'
p130
I2
sS'0.0.0.0-169.254.43.92'
p131
I3
sS'169.254.187.202-169.254.187.202'
p132
I1
sS'169.254.168.228-169.254.168.228'
p133
I2
sS'0.0.0.0-169.254.140.119'
p134
I2
sS'169.254.85.197-17.173.254.222'
p135
I7
sS'0.0.0.0-169.254.13.214'
p136
I3
sS'169.254.205.42-169.254.205.42'
p137
I1
sS'0.0.0.0-169.254.86.30'
p138
I5
sS'0.0.0.0-169.254.137.106'
p139
I71
sS'172.17.98.30-172.17.98.1'
p140
I4
sS'169.254.136.79-169.254.136.79'
p141
I2
sS'172.17.98.25-172.17.98.1'
p142
I3
sS'0.0.0.0-172.17.98.17'
p143
I2
sS'169.254.37.197-169.254.37.197'
p144
I1
sS'0.0.0.0-169.254.70.115'
p145
I21
sS'0.0.0.0-169.254.2.81'
p146
I12
sS'169.254.4.243-169.254.4.243'
p147
I1
sS'172.17.98.21-172.17.98.1'
p148
I3
sS'169.254.20.90-169.254.20.90'
p149
I1
sS'0.0.0.0-169.254.47.8'
p150
I1
sS'0.0.0.0-169.254.136.79'
p151
I6
sS'169.254.159.116-169.254.159.116'
p152
I1
sS'172.17.98.1-172.17.98.8'
p153
I2
sS'0.0.0.0-169.254.175.115'
p154
I2
sS'172.17.98.26-172.17.98.26'
p155
I1
sS'0.0.0.0-169.254.123.78'
p156
I2
sS'169.254.247.88-169.254.247.88'
p157
I1
sS'169.254.72.40-169.254.72.40'
p158
I1
sS'0.0.0.0-169.254.99.88'
p159
I2
sS'172.17.98.1-172.17.98.4'
p160
I2
sS'0.0.0.0-169.254.136.109'
p161
I3
sS'0.0.0.0-169.254.3.254'
p162
I3
sS'172.17.98.23-172.17.98.1'
p163
I23
sS'0.0.0.0-169.254.241.41'
p164
I1
sS'0.0.0.0-169.254.168.228'
p165
I8
sS'169.254.233.95-169.254.233.95'
p166
I1
sS'0.0.0.0-169.254.205.37'
p167
I2
sS'0.0.0.0-169.254.177.212'
p168
I5
sS'169.254.93.228-169.254.93.228'
p169
I2
sS'169.254.238.208-169.254.238.208'
p170
I2
sS'169.254.196.89-169.254.196.89'
p171
I1
sS'172.17.98.16-172.17.98.1'
p172
I4
sS'0.0.0.0-169.254.251.8'
p173
I1
sS'169.254.177.212-169.254.177.212'
p174
I1
sS'0.0.0.0-169.254.32.63'
p175
I4
sS'169.254.137.106-169.254.137.106'
p176
I15
sS'169.254.48.107-169.254.48.107'
p177
I1
sS'0.0.0.0-169.254.187.202'
p178
I2
sS'0.0.0.0-169.254.196.89'
p179
I1
sS'169.254.70.115-17.173.254.223'
p180
I27
sS'169.254.70.115-17.173.254.222'
p181
I26
sS'0.0.0.0-169.254.37.197'
p182
I4
sS'0.0.0.0-169.254.64.101'
p183
I1
sS'169.254.102.136-169.254.102.136'
p184
I2
sS'169.254.239.136-169.254.239.136'
p185
I1
sS'169.254.123.32-50.22.225.85'
p186
I1
sS'0.0.0.0-192.168.2.1'
p187
I51
sS'0.0.0.0-169.254.191.188'
p188
I4
s.